target datalayout = "e-m:e-p270:32:32-p271:32:32-p272:64:64-i64:64-i128:128-f80:128-n8:16:32:64-S128"
target triple = "x86_64-pc-linux-gnu"

%struct._zend_array = type { %struct._zend_refcounted_h, %union.anon.0, i32, %union.anon.1, i32, i32, i32, i32, i64, ptr }
%struct._zend_refcounted_h = type { i32, %union.anon }
%union.anon = type { i32 }
%union.anon.0 = type { i32 }
%union.anon.1 = type { ptr }
%struct._zend_class_entry = type { i8, ptr, %union.anon.9, i32, i32, i32, i32, ptr, ptr, ptr, %struct._zend_array, %struct._zend_array, %struct._zend_array, ptr, ptr, ptr, ptr, ptr, ptr, ptr, ptr, ptr, ptr, ptr, ptr, ptr, ptr, ptr, ptr, ptr, ptr, ptr, %union.anon.10, ptr, ptr, ptr, ptr, i32, i32, %union.anon.11, ptr, ptr, ptr, ptr, i32, ptr, ptr, %union.anon.12 }
%union.anon.9 = type { ptr }
%union.anon.10 = type { ptr }
%union.anon.11 = type { ptr }
%union.anon.12 = type { %struct.anon.13 }
%struct.anon.13 = type { ptr, i32, i32 }
%struct._zend_string = type { %struct._zend_refcounted_h, i64, i64, [1 x i8] }

@.str.13 = private unnamed_addr constant [64 x i8] c"Insufficient data for unserializing - %ld required, %ld present\00", align 1
@.str.14 = private unnamed_addr constant [29 x i8] c"Class %s has no unserializer\00", align 1
@.str.15 = private unnamed_addr constant [30 x i8] c"Numerical result out of range\00", align 1

; Function Attrs: nounwind uwtable
define internal i64 @parse_iv2(ptr noundef %0, ptr noundef %1) #0 {
  %3 = alloca i64, align 8
  %4 = alloca ptr, align 8
  %5 = alloca ptr, align 8
  %6 = alloca i64, align 8
  %7 = alloca i64, align 8
  %8 = alloca ptr, align 8
  store ptr %0, ptr %4, align 8
  store ptr %1, ptr %5, align 8
  store i64 0, ptr %6, align 8
  store i64 0, ptr %7, align 8
  %9 = load ptr, ptr %4, align 8
  %10 = load i8, ptr %9, align 1
  %11 = zext i8 %10 to i32
  %12 = icmp eq i32 %11, 45
  br i1 %12, label %13, label %16

13:                                               ; preds = %2
  store i64 1, ptr %7, align 8
  %14 = load ptr, ptr %4, align 8
  %15 = getelementptr inbounds i8, ptr %14, i32 1
  store ptr %15, ptr %4, align 8
  br label %30

16:                                               ; preds = %2
  %17 = load ptr, ptr %4, align 8
  %18 = load i8, ptr %17, align 1
  %19 = zext i8 %18 to i32
  %20 = icmp eq i32 %19, 43
  %21 = xor i1 %20, true
  %22 = xor i1 %21, true
  %23 = zext i1 %22 to i32
  %24 = sext i32 %23 to i64
  %25 = icmp ne i64 %24, 0
  br i1 %25, label %26, label %29

26:                                               ; preds = %16
  %27 = load ptr, ptr %4, align 8
  %28 = getelementptr inbounds i8, ptr %27, i32 1
  store ptr %28, ptr %4, align 8
  br label %29

29:                                               ; preds = %26, %16
  br label %30

30:                                               ; preds = %29, %13
  br label %31

31:                                               ; preds = %41, %30
  %32 = load ptr, ptr %4, align 8
  %33 = load i8, ptr %32, align 1
  %34 = zext i8 %33 to i32
  %35 = icmp eq i32 %34, 48
  %36 = xor i1 %35, true
  %37 = xor i1 %36, true
  %38 = zext i1 %37 to i32
  %39 = sext i32 %38 to i64
  %40 = icmp ne i64 %39, 0
  br i1 %40, label %41, label %44

41:                                               ; preds = %31
  %42 = load ptr, ptr %4, align 8
  %43 = getelementptr inbounds i8, ptr %42, i32 1
  store ptr %43, ptr %4, align 8
  br label %31

44:                                               ; preds = %31
  %45 = load ptr, ptr %4, align 8
  store ptr %45, ptr %8, align 8
  br label %46

46:                                               ; preds = %58, %44
  %47 = load ptr, ptr %4, align 8
  %48 = load i8, ptr %47, align 1
  %49 = zext i8 %48 to i32
  %50 = icmp sge i32 %49, 48
  br i1 %50, label %51, label %56

51:                                               ; preds = %46
  %52 = load ptr, ptr %4, align 8
  %53 = load i8, ptr %52, align 1
  %54 = zext i8 %53 to i32
  %55 = icmp sle i32 %54, 57
  br label %56

56:                                               ; preds = %51, %46
  %57 = phi i1 [ false, %46 ], [ %55, %51 ]
  br i1 %57, label %58, label %68

58:                                               ; preds = %56
  %59 = load i64, ptr %6, align 8
  %60 = mul i64 %59, 10
  %61 = load ptr, ptr %4, align 8
  %62 = load i8, ptr %61, align 1
  %63 = zext i8 %62 to i64
  %64 = sub i64 %63, 48
  %65 = add i64 %60, %64
  store i64 %65, ptr %6, align 8
  %66 = load ptr, ptr %4, align 8
  %67 = getelementptr inbounds i8, ptr %66, i32 1
  store ptr %67, ptr %4, align 8
  br label %46

68:                                               ; preds = %56
  %69 = load ptr, ptr %5, align 8
  %70 = icmp ne ptr %69, null
  br i1 %70, label %71, label %74

71:                                               ; preds = %68
  %72 = load ptr, ptr %4, align 8
  %73 = load ptr, ptr %5, align 8
  store ptr %72, ptr %73, align 8
  br label %74

74:                                               ; preds = %71, %68
  %75 = load ptr, ptr %4, align 8
  %76 = load ptr, ptr %8, align 8
  %77 = ptrtoint ptr %75 to i64
  %78 = ptrtoint ptr %76 to i64
  %79 = sub i64 %77, %78
  %80 = icmp sgt i64 %79, 19
  %81 = xor i1 %80, true
  %82 = xor i1 %81, true
  %83 = zext i1 %82 to i32
  %84 = sext i32 %83 to i64
  %85 = icmp ne i64 %84, 0
  br i1 %85, label %96, label %86

86:                                               ; preds = %74
  %87 = load i64, ptr %6, align 8
  %88 = load i64, ptr %7, align 8
  %89 = add i64 9223372036854775807, %88
  %90 = icmp ugt i64 %87, %89
  %91 = xor i1 %90, true
  %92 = xor i1 %91, true
  %93 = zext i1 %92 to i32
  %94 = sext i32 %93 to i64
  %95 = icmp ne i64 %94, 0
  br i1 %95, label %96, label %101

96:                                               ; preds = %86, %74
  call void (ptr, i32, ptr, ...) @php_error_docref(ptr noundef null, i32 noundef 2, ptr noundef @.str.15)
  %97 = load i64, ptr %7, align 8
  %98 = icmp ne i64 %97, 0
  %99 = xor i1 %98, true
  %100 = select i1 %99, i64 9223372036854775807, i64 -9223372036854775808
  store i64 %100, ptr %3, align 8
  br label %111

101:                                              ; preds = %86
  %102 = load i64, ptr %7, align 8
  %103 = icmp ne i64 %102, 0
  br i1 %103, label %106, label %104

104:                                              ; preds = %101
  %105 = load i64, ptr %6, align 8
  br label %109

106:                                              ; preds = %101
  %107 = load i64, ptr %6, align 8
  %108 = sub i64 0, %107
  br label %109

109:                                              ; preds = %106, %104
  %110 = phi i64 [ %105, %104 ], [ %108, %106 ]
  store i64 %110, ptr %3, align 8
  br label %111

111:                                              ; preds = %109, %96
  %112 = load i64, ptr %3, align 8
  ret i64 %112
}

; Function Attrs: nounwind uwtable
define internal i32 @object_custom(ptr noundef %0, ptr noundef %1, ptr noundef %2, ptr noundef %3, ptr noundef %4) #0 {
  %6 = alloca i32, align 4
  %7 = alloca ptr, align 8
  %8 = alloca ptr, align 8
  %9 = alloca ptr, align 8
  %10 = alloca ptr, align 8
  %11 = alloca ptr, align 8
  %12 = alloca i64, align 8
  store ptr %0, ptr %7, align 8
  store ptr %1, ptr %8, align 8
  store ptr %2, ptr %9, align 8
  store ptr %3, ptr %10, align 8
  store ptr %4, ptr %11, align 8
  %13 = load ptr, ptr %8, align 8
  %14 = load ptr, ptr %13, align 8
  %15 = getelementptr inbounds i8, ptr %14, i64 2
  %16 = load ptr, ptr %8, align 8
  %17 = call i64 @parse_iv2(ptr noundef %15, ptr noundef %16)
  store i64 %17, ptr %12, align 8
  %18 = load ptr, ptr %9, align 8
  %19 = load ptr, ptr %8, align 8
  %20 = load ptr, ptr %19, align 8
  %21 = ptrtoint ptr %18 to i64
  %22 = ptrtoint ptr %20 to i64
  %23 = sub i64 %21, %22
  %24 = icmp slt i64 %23, 2
  br i1 %24, label %25, label %26

25:                                               ; preds = %5
  store i32 0, ptr %6, align 4
  br label %115

26:                                               ; preds = %5
  %27 = load ptr, ptr %8, align 8
  %28 = load ptr, ptr %27, align 8
  %29 = getelementptr inbounds i8, ptr %28, i64 0
  %30 = load i8, ptr %29, align 1
  %31 = zext i8 %30 to i32
  %32 = icmp ne i32 %31, 58
  br i1 %32, label %33, label %34

33:                                               ; preds = %26
  store i32 0, ptr %6, align 4
  br label %115

34:                                               ; preds = %26
  %35 = load ptr, ptr %8, align 8
  %36 = load ptr, ptr %35, align 8
  %37 = getelementptr inbounds i8, ptr %36, i64 1
  %38 = load i8, ptr %37, align 1
  %39 = zext i8 %38 to i32
  %40 = icmp ne i32 %39, 123
  br i1 %40, label %41, label %45

41:                                               ; preds = %34
  %42 = load ptr, ptr %8, align 8
  %43 = load ptr, ptr %42, align 8
  %44 = getelementptr inbounds i8, ptr %43, i64 1
  store ptr %44, ptr %42, align 8
  store i32 0, ptr %6, align 4
  br label %115

45:                                               ; preds = %34
  %46 = load ptr, ptr %8, align 8
  %47 = load ptr, ptr %46, align 8
  %48 = getelementptr inbounds i8, ptr %47, i64 2
  store ptr %48, ptr %46, align 8
  %49 = load i64, ptr %12, align 8
  %50 = icmp slt i64 %49, 0
  br i1 %50, label %60, label %51

51:                                               ; preds = %45
  %52 = load ptr, ptr %9, align 8
  %53 = load ptr, ptr %8, align 8
  %54 = load ptr, ptr %53, align 8
  %55 = ptrtoint ptr %52 to i64
  %56 = ptrtoint ptr %54 to i64
  %57 = sub i64 %55, %56
  %58 = load i64, ptr %12, align 8
  %59 = icmp sle i64 %57, %58
  br i1 %59, label %60, label %68

60:                                               ; preds = %51, %45
  %61 = load i64, ptr %12, align 8
  %62 = load ptr, ptr %9, align 8
  %63 = load ptr, ptr %8, align 8
  %64 = load ptr, ptr %63, align 8
  %65 = ptrtoint ptr %62 to i64
  %66 = ptrtoint ptr %64 to i64
  %67 = sub i64 %65, %66
  call void (i32, ptr, ...) @zend_error(i32 noundef 2, ptr noundef @.str.13, i64 noundef %61, i64 noundef %67)
  store i32 0, ptr %6, align 4
  br label %115

68:                                               ; preds = %51
  %69 = load ptr, ptr %8, align 8
  %70 = load ptr, ptr %69, align 8
  %71 = load i64, ptr %12, align 8
  %72 = getelementptr inbounds i8, ptr %70, i64 %71
  %73 = load i8, ptr %72, align 1
  %74 = zext i8 %73 to i32
  %75 = icmp ne i32 %74, 125
  br i1 %75, label %76, label %81

76:                                               ; preds = %68
  %77 = load i64, ptr %12, align 8
  %78 = load ptr, ptr %8, align 8
  %79 = load ptr, ptr %78, align 8
  %80 = getelementptr inbounds i8, ptr %79, i64 %77
  store ptr %80, ptr %78, align 8
  store i32 0, ptr %6, align 4
  br label %115

81:                                               ; preds = %68
  %82 = load ptr, ptr %11, align 8
  %83 = getelementptr inbounds %struct._zend_class_entry, ptr %82, i32 0, i32 36
  %84 = load ptr, ptr %83, align 8
  %85 = icmp eq ptr %84, null
  br i1 %85, label %86, label %95

86:                                               ; preds = %81
  %87 = load ptr, ptr %11, align 8
  %88 = getelementptr inbounds %struct._zend_class_entry, ptr %87, i32 0, i32 1
  %89 = load ptr, ptr %88, align 8
  %90 = getelementptr inbounds %struct._zend_string, ptr %89, i32 0, i32 3
  %91 = getelementptr inbounds [1 x i8], ptr %90, i64 0, i64 0
  call void (i32, ptr, ...) @zend_error(i32 noundef 2, ptr noundef @.str.14, ptr noundef %91)
  %92 = load ptr, ptr %7, align 8
  %93 = load ptr, ptr %11, align 8
  %94 = call i32 @object_init_ex(ptr noundef %92, ptr noundef %93)
  br label %109

95:                                               ; preds = %81
  %96 = load ptr, ptr %11, align 8
  %97 = getelementptr inbounds %struct._zend_class_entry, ptr %96, i32 0, i32 36
  %98 = load ptr, ptr %97, align 8
  %99 = load ptr, ptr %7, align 8
  %100 = load ptr, ptr %11, align 8
  %101 = load ptr, ptr %8, align 8
  %102 = load ptr, ptr %101, align 8
  %103 = load i64, ptr %12, align 8
  %104 = load ptr, ptr %10, align 8
  %105 = call i32 %98(ptr noundef %99, ptr noundef %100, ptr noundef %102, i64 noundef %103, ptr noundef %104)
  %106 = icmp ne i32 %105, 0
  br i1 %106, label %107, label %108

107:                                              ; preds = %95
  store i32 0, ptr %6, align 4
  br label %115

108:                                              ; preds = %95
  br label %109

109:                                              ; preds = %108, %86
  %110 = load i64, ptr %12, align 8
  %111 = add nsw i64 %110, 1
  %112 = load ptr, ptr %8, align 8
  %113 = load ptr, ptr %112, align 8
  %114 = getelementptr inbounds i8, ptr %113, i64 %111
  store ptr %114, ptr %112, align 8
  store i32 1, ptr %6, align 4
  br label %115

115:                                              ; preds = %109, %107, %76, %60, %41, %33, %25
  %116 = load i32, ptr %6, align 4
  ret i32 %116
}