; Function Attrs: nounwind uwtable
define internal fastcc noundef i32 @object_custom(ptr noundef %0, ptr nocapture noundef %1, ptr noundef %2, ptr noundef %3, ptr noundef %4) unnamed_addr #0 {
  %6 = load ptr, ptr %1, align 8
  %7 = getelementptr inbounds i8, ptr %6, i64 2
  %8 = load i8, ptr %7, align 1
  %.not30.not.i = icmp eq i8 %8, 45
  %9 = icmp eq i8 %8, 43
  %10 = or i1 %.not30.not.i, %9
  %.025.idx.i = zext i1 %10 to i64
  %.025.i = getelementptr inbounds i8, ptr %7, i64 %.025.idx.i
  br label %11

11:                                               ; preds = %11, %5
  %.1.i = phi ptr [ %.025.i, %5 ], [ %14, %11 ]
  %12 = load i8, ptr %.1.i, align 1
  %13 = icmp eq i8 %12, 48
  %14 = getelementptr inbounds i8, ptr %.1.i, i64 1
  br i1 %13, label %11, label %.preheader.i

.preheader.i:                                     ; preds = %11
  %.023.i = select i1 %.not30.not.i, i64 -9223372036854775808, i64 9223372036854775807
  %15 = add i8 %12, -48
  %or.cond33.i = icmp ult i8 %15, 10
  br i1 %or.cond33.i, label %.lr.ph.i, label %.loopexit

.lr.ph.i:                                         ; preds = %.preheader.i, %.lr.ph.i
  %16 = phi i8 [ %22, %.lr.ph.i ], [ %12, %.preheader.i ]
  %.02435.i = phi i64 [ %20, %.lr.ph.i ], [ 0, %.preheader.i ]
  %.234.i = phi ptr [ %21, %.lr.ph.i ], [ %.1.i, %.preheader.i ]
  %17 = mul i64 %.02435.i, 10
  %18 = zext nneg i8 %16 to i64
  %19 = add nsw i64 %18, -48
  %20 = add i64 %19, %17
  %21 = getelementptr inbounds i8, ptr %.234.i, i64 1
  %22 = load i8, ptr %21, align 1
  %23 = add i8 %22, -48
  %or.cond.i = icmp ult i8 %23, 10
  br i1 %or.cond.i, label %.lr.ph.i, label %.loopexit

.loopexit:                                        ; preds = %.lr.ph.i, %.preheader.i
  %.2.lcssa.i = phi ptr [ %.1.i, %.preheader.i ], [ %21, %.lr.ph.i ]
  %.024.lcssa.i = phi i64 [ 0, %.preheader.i ], [ %20, %.lr.ph.i ]
  store ptr %.2.lcssa.i, ptr %1, align 8
  %24 = ptrtoint ptr %.2.lcssa.i to i64
  %25 = ptrtoint ptr %.1.i to i64
  %26 = sub i64 %24, %25
  %27 = icmp sgt i64 %26, 19
  %28 = icmp ugt i64 %.024.lcssa.i, %.023.i
  %or.cond32.i = select i1 %27, i1 true, i1 %28
  br i1 %or.cond32.i, label %29, label %30

29:                                               ; preds = %.loopexit
  tail call void (ptr, i32, ptr, ...) @php_error_docref(ptr noundef null, i32 noundef 2, ptr noundef nonnull @.str.15) #13
  %.pre = load ptr, ptr %1, align 8
  %.pre42 = ptrtoint ptr %.pre to i64
  br label %parse_iv2.exit

30:                                               ; preds = %.loopexit
  %31 = sub i64 0, %.024.lcssa.i
  %32 = select i1 %.not30.not.i, i64 %31, i64 %.024.lcssa.i
  br label %parse_iv2.exit

parse_iv2.exit:                                   ; preds = %29, %30
  %.pre-phi = phi i64 [ %.pre42, %29 ], [ %24, %30 ]
  %33 = phi ptr [ %.pre, %29 ], [ %.2.lcssa.i, %30 ]
  %.0.i = phi i64 [ %.023.i, %29 ], [ %32, %30 ]
  %34 = ptrtoint ptr %2 to i64
  %35 = sub i64 %34, %.pre-phi
  %36 = icmp slt i64 %35, 2
  br i1 %36, label %68, label %37

37:                                               ; preds = %parse_iv2.exit
  %38 = load i8, ptr %33, align 1
  %.not = icmp eq i8 %38, 58
  br i1 %.not, label %39, label %68

39:                                               ; preds = %37
  %40 = getelementptr inbounds i8, ptr %33, i64 1
  %41 = load i8, ptr %40, align 1
  %.not33 = icmp eq i8 %41, 123
  br i1 %.not33, label %43, label %42

42:                                               ; preds = %39
  store ptr %40, ptr %1, align 8
  br label %68

43:                                               ; preds = %39
  %44 = getelementptr inbounds i8, ptr %33, i64 2
  store ptr %44, ptr %1, align 8
  %45 = icmp sgt i64 %.0.i, -1
  %46 = ptrtoint ptr %44 to i64
  %47 = sub i64 %34, %46
  %.not34 = icmp sgt i64 %47, %.0.i
  %or.cond = select i1 %45, i1 %.not34, i1 false
  br i1 %or.cond, label %49, label %48

48:                                               ; preds = %43
  tail call void (i32, ptr, ...) @zend_error(i32 noundef 2, ptr noundef nonnull @.str.13, i64 noundef %.0.i, i64 noundef %47) #13
  br label %68

49:                                               ; preds = %43
  %50 = getelementptr inbounds i8, ptr %44, i64 %.0.i
  %51 = load i8, ptr %50, align 1
  %.not35 = icmp eq i8 %51, 125
  br i1 %.not35, label %53, label %52

52:                                               ; preds = %49
  store ptr %50, ptr %1, align 8
  br label %68

53:                                               ; preds = %49
  %54 = getelementptr inbounds i8, ptr %4, i64 416
  %55 = load ptr, ptr %54, align 8
  %56 = icmp eq ptr %55, null
  br i1 %56, label %57, label %62

57:                                               ; preds = %53
  %58 = getelementptr inbounds i8, ptr %4, i64 8
  %59 = load ptr, ptr %58, align 8
  %60 = getelementptr inbounds i8, ptr %59, i64 24
  tail call void (i32, ptr, ...) @zend_error(i32 noundef 2, ptr noundef nonnull @.str.14, ptr noundef nonnull %60) #13
  %61 = tail call i32 @object_init_ex(ptr noundef %0, ptr noundef nonnull %4) #13
  br label %64

62:                                               ; preds = %53
  %63 = tail call i32 %55(ptr noundef %0, ptr noundef nonnull %4, ptr noundef nonnull %44, i64 noundef %.0.i, ptr noundef %3) #13
  %.not36 = icmp eq i32 %63, 0
  br i1 %.not36, label %64, label %68

64:                                               ; preds = %62, %57
  %65 = load ptr, ptr %1, align 8
  %66 = getelementptr i8, ptr %65, i64 %.0.i
  %67 = getelementptr i8, ptr %66, i64 1
  store ptr %67, ptr %1, align 8
  br label %68

68:                                               ; preds = %62, %37, %parse_iv2.exit, %64, %52, %48, %42
  %.0 = phi i32 [ 0, %42 ], [ 0, %48 ], [ 0, %52 ], [ 1, %64 ], [ 0, %parse_iv2.exit ], [ 0, %37 ], [ 0, %62 ]
  ret i32 %.0
}